target datalayout = "e-m:e-p270:32:32-p271:32:32-p272:64:64-i64:64-i128:128-f80:128-n8:16:32:64-S128"
target triple = "x86_64-pc-linux-gnu"

; Function Attrs: nounwind uwtable
define internal i32 @GetBits(ptr noundef %0, i64 noundef %1, i64 noundef %2, ptr noundef %3, ptr noundef %4) #0 {
  %6 = alloca i32, align 4
  %7 = alloca ptr, align 8
  %8 = alloca i64, align 8
  %9 = alloca i64, align 8
  %10 = alloca ptr, align 8
  %11 = alloca ptr, align 8
  %12 = alloca i64, align 8
  %13 = alloca i32, align 4
  store ptr %0, ptr %7, align 8
  store i64 %1, ptr %8, align 8
  store i64 %2, ptr %9, align 8
  store ptr %3, ptr %10, align 8
  store ptr %4, ptr %11, align 8
  %14 = load ptr, ptr %10, align 8
  store i32 0, ptr %14, align 4
  br label %15

15:                                               ; preds = %50, %5
  %16 = load i64, ptr %9, align 8
  %17 = add i64 %16, -1
  store i64 %17, ptr %9, align 8
  %18 = icmp ugt i64 %16, 0
  br i1 %18, label %19, label %51

19:                                               ; preds = %15
  %20 = load ptr, ptr %11, align 8
  %21 = load i64, ptr %20, align 8
  %22 = add i64 %21, 1
  store i64 %22, ptr %20, align 8
  store i64 %21, ptr %12, align 8
  %23 = load i64, ptr %12, align 8
  %24 = lshr i64 %23, 3
  %25 = load i64, ptr %8, align 8
  %26 = icmp uge i64 %24, %25
  br i1 %26, label %27, label %28

27:                                               ; preds = %19
  store i32 0, ptr %6, align 4
  br label %52

28:                                               ; preds = %19
  %29 = load ptr, ptr %7, align 8
  %30 = load i64, ptr %12, align 8
  %31 = lshr i64 %30, 3
  %32 = getelementptr inbounds i8, ptr %29, i64 %31
  %33 = load i8, ptr %32, align 1
  %34 = zext i8 %33 to i32
  %35 = load i64, ptr %12, align 8
  %36 = and i64 %35, 7
  %37 = trunc i64 %36 to i32
  %38 = ashr i32 128, %37
  %39 = and i32 %34, %38
  %40 = icmp ne i32 %39, 0
  %41 = xor i1 %40, true
  %42 = xor i1 %41, true
  %43 = zext i1 %42 to i32
  store i32 %43, ptr %13, align 4
  %44 = load ptr, ptr %10, align 8
  %45 = load i32, ptr %44, align 4
  %46 = shl i32 %45, 1
  %47 = load i32, ptr %13, align 4
  %48 = or i32 %46, %47
  %49 = load ptr, ptr %10, align 8
  store i32 %48, ptr %49, align 4
  br label %50

50:                                               ; preds = %28
  br label %15, !llvm.loop !12

51:                                               ; preds = %15
  store i32 1, ptr %6, align 4
  br label %52

52:                                               ; preds = %51, %27
  %53 = load i32, ptr %6, align 4
  ret i32 %53
}

; Function Attrs: nounwind uwtable
define internal i32 @GetSignedBits(ptr noundef %0, i64 noundef %1, i64 noundef %2, ptr noundef %3, ptr noundef %4) #0 {
  %6 = alloca i32, align 4
  %7 = alloca ptr, align 8
  %8 = alloca i64, align 8
  %9 = alloca i64, align 8
  %10 = alloca ptr, align 8
  %11 = alloca ptr, align 8
  %12 = alloca i32, align 4
  store ptr %0, ptr %7, align 8
  store i64 %1, ptr %8, align 8
  store i64 %2, ptr %9, align 8
  store ptr %3, ptr %10, align 8
  store ptr %4, ptr %11, align 8
  %13 = load ptr, ptr %7, align 8
  %14 = load i64, ptr %8, align 8
  %15 = load i64, ptr %9, align 8
  %16 = load ptr, ptr %10, align 8
  %17 = load ptr, ptr %11, align 8
  %18 = call i32 @GetBits(ptr noundef %13, i64 noundef %14, i64 noundef %15, ptr noundef %16, ptr noundef %17)
  %19 = icmp ne i32 %18, 0
  br i1 %19, label %21, label %20

20:                                               ; preds = %5
  store i32 0, ptr %6, align 4
  br label %37

21:                                               ; preds = %5
  %22 = load ptr, ptr %7, align 8
  %23 = load i64, ptr %8, align 8
  %24 = load ptr, ptr %11, align 8
  %25 = call i32 @GetBits(ptr noundef %22, i64 noundef %23, i64 noundef 1, ptr noundef %12, ptr noundef %24)
  %26 = icmp ne i32 %25, 0
  br i1 %26, label %28, label %27

27:                                               ; preds = %21
  store i32 0, ptr %6, align 4
  br label %37

28:                                               ; preds = %21
  %29 = load i32, ptr %12, align 4
  %30 = icmp ne i32 %29, 0
  br i1 %30, label %31, label %36

31:                                               ; preds = %28
  %32 = load ptr, ptr %10, align 8
  %33 = load i32, ptr %32, align 4
  %34 = sub nsw i32 0, %33
  %35 = load ptr, ptr %10, align 8
  store i32 %34, ptr %35, align 4
  br label %36

36:                                               ; preds = %31, %28
  store i32 1, ptr %6, align 4
  br label %37

37:                                               ; preds = %36, %27, %20
  %38 = load i32, ptr %6, align 4
  ret i32 %38
}