; Function Attrs: nofree norecurse nosync nounwind memory(argmem: readwrite) uwtable
define internal fastcc range(i32 0, 2) i32 @GetSignedBits(ptr nocapture noundef readonly %0, i64 noundef %1, i64 noundef %2, ptr nocapture noundef %3, ptr nocapture noundef %4) unnamed_addr #7 {
  store i32 0, ptr %3, align 4
  %.not14.i = icmp eq i64 %2, 0
  br i1 %.not14.i, label %.loopexit, label %.lr.ph.i

.lr.ph.i:                                         ; preds = %5, %9
  %.in.i = phi i64 [ %10, %9 ], [ %2, %5 ]
  %6 = load i64, ptr %4, align 8
  %7 = add i64 %6, 1
  store i64 %7, ptr %4, align 8
  %8 = lshr i64 %6, 3
  %.not13.i = icmp ult i64 %8, %1
  br i1 %.not13.i, label %9, label %GetBits.exit

9:                                                ; preds = %.lr.ph.i
  %10 = add i64 %.in.i, -1
  %11 = getelementptr inbounds i8, ptr %0, i64 %8
  %12 = load i8, ptr %11, align 1
  %13 = zext i8 %12 to i32
  %14 = trunc i64 %6 to i32
  %15 = and i32 %14, 7
  %16 = lshr exact i32 128, %15
  %17 = and i32 %16, %13
  %18 = icmp ne i32 %17, 0
  %19 = zext i1 %18 to i32
  %20 = load i32, ptr %3, align 4
  %21 = shl i32 %20, 1
  %22 = or disjoint i32 %21, %19
  store i32 %22, ptr %3, align 4
  %.not.i = icmp eq i64 %10, 0
  br i1 %.not.i, label %.loopexit, label %.lr.ph.i, !llvm.loop !11

.loopexit:                                        ; preds = %9, %5
  %.promoted = load i64, ptr %4, align 8
  %23 = add i64 %.promoted, 1
  store i64 %23, ptr %4, align 8
  %24 = lshr i64 %.promoted, 3
  %.not13.i14 = icmp ult i64 %24, %1
  br i1 %.not13.i14, label %GetBits.exit17, label %GetBits.exit

GetBits.exit17:                                   ; preds = %.loopexit
  %25 = getelementptr inbounds i8, ptr %0, i64 %24
  %26 = load i8, ptr %25, align 1
  %27 = zext i8 %26 to i32
  %28 = trunc i64 %.promoted to i32
  %29 = and i32 %28, 7
  %30 = lshr exact i32 128, %29
  %31 = and i32 %30, %27
  %.not = icmp eq i32 %31, 0
  br i1 %.not, label %GetBits.exit, label %32

32:                                               ; preds = %GetBits.exit17
  %33 = load i32, ptr %3, align 4
  %34 = sub nsw i32 0, %33
  store i32 %34, ptr %3, align 4
  br label %GetBits.exit

GetBits.exit:                                     ; preds = %.lr.ph.i, %.loopexit, %GetBits.exit17, %32
  %.0 = phi i32 [ 1, %32 ], [ 1, %GetBits.exit17 ], [ 0, %.loopexit ], [ 0, %.lr.ph.i ]
  ret i32 %.0
}